target datalayout = "e-m:e-p270:32:32-p271:32:32-p272:64:64-i64:64-i128:128-f80:128-n8:16:32:64-S128"
target triple = "x86_64-pc-linux-gnu"

%union.pthread_mutex_t = type { %struct.__pthread_mutex_s }
%struct.__pthread_mutex_s = type { i32, i32, i32, i32, i32, i16, i16, %struct.__pthread_internal_list }
%struct.__pthread_internal_list = type { ptr, ptr }
%struct.acct_gather_profile_timer_t = type { i32, i64, %union.pthread_cond_t, %union.pthread_mutex_t }
%union.pthread_cond_t = type { %struct.__pthread_cond_s }
%struct.__pthread_cond_s = type { %union.__atomic_wide_counter, %union.__atomic_wide_counter, [2 x i32], [2 x i32], i32, i32, [2 x i32] }
%union.__atomic_wide_counter = type { i64 }

@g_context_lock = internal global %union.pthread_mutex_t zeroinitializer, align 8
@.str.1 = private unnamed_addr constant [29 x i8] c"%s: pthread_mutex_lock(): %m\00", align 1
@plugin_inited = internal global i32 0, align 4
@init_run_mutex = internal global %union.pthread_mutex_t zeroinitializer, align 8
@.str.3 = private unnamed_addr constant [31 x i8] c"%s: pthread_mutex_unlock(): %m\00", align 1
@profile_timer = internal global ptr getelementptr (i8, ptr @acct_gather_profile_timer, i64 104), align 8
@.str.8 = private unnamed_addr constant [17 x i8] c"jobacct_gather.c\00", align 1
@jobacct_shutdown_mutex = internal global %union.pthread_mutex_t zeroinitializer, align 8
@jobacct_shutdown = internal global i8 1, align 1
@__func__._jobacct_shutdown_test = private unnamed_addr constant [23 x i8] c"_jobacct_shutdown_test\00", align 1
@.str.45 = private unnamed_addr constant [6 x i8] c"acctg\00", align 1
@.str.46 = private unnamed_addr constant [32 x i8] c"%s: cannot set my name to %s %m\00", align 1
@__func__._watch_tasks = private unnamed_addr constant [13 x i8] c"_watch_tasks\00", align 1
@.str.47 = private unnamed_addr constant [34 x i8] c"%s:%d %s: pthread_cond_wait(): %m\00", align 1
@__func__._init_run_test = private unnamed_addr constant [15 x i8] c"_init_run_test\00", align 1

; Function Attrs: nounwind uwtable
define internal zeroext i1 @_jobacct_shutdown_test() #0 {
  %1 = alloca i8, align 1
  %2 = alloca i32, align 4
  %3 = alloca i32, align 4
  call void @llvm.lifetime.start.p0(i64 1, ptr %1) #8
  br label %4

4:                                                ; preds = %0
  call void @llvm.lifetime.start.p0(i64 4, ptr %2) #8
  %5 = call i32 @pthread_mutex_lock(ptr noundef @jobacct_shutdown_mutex) #8
  store i32 %5, ptr %2, align 4
  %6 = load i32, ptr %2, align 4
  %7 = icmp ne i32 %6, 0
  br i1 %7, label %8, label %11

8:                                                ; preds = %4
  %9 = load i32, ptr %2, align 4
  %10 = call ptr @__errno_location() #9
  store i32 %9, ptr %10, align 4
  call void (ptr, ...) @fatal_abort(ptr noundef @.str.1, ptr noundef @__func__._jobacct_shutdown_test) #10
  unreachable

11:                                               ; preds = %4
  call void @llvm.lifetime.end.p0(i64 4, ptr %2) #8
  br label %12

12:                                               ; preds = %11
  br label %13

13:                                               ; preds = %12
  %14 = load i8, ptr @jobacct_shutdown, align 1, !range !8, !noundef !9
  %15 = trunc i8 %14 to i1
  %16 = zext i1 %15 to i8
  store i8 %16, ptr %1, align 1
  br label %17

17:                                               ; preds = %13
  call void @llvm.lifetime.start.p0(i64 4, ptr %3) #8
  %18 = call i32 @pthread_mutex_unlock(ptr noundef @jobacct_shutdown_mutex) #8
  store i32 %18, ptr %3, align 4
  %19 = load i32, ptr %3, align 4
  %20 = icmp ne i32 %19, 0
  br i1 %20, label %21, label %24

21:                                               ; preds = %17
  %22 = load i32, ptr %3, align 4
  %23 = call ptr @__errno_location() #9
  store i32 %22, ptr %23, align 4
  call void (ptr, ...) @fatal_abort(ptr noundef @.str.3, ptr noundef @__func__._jobacct_shutdown_test) #10
  unreachable

24:                                               ; preds = %17
  call void @llvm.lifetime.end.p0(i64 4, ptr %3) #8
  br label %25

25:                                               ; preds = %24
  br label %26

26:                                               ; preds = %25
  %27 = load i8, ptr %1, align 1, !range !8, !noundef !9
  %28 = trunc i8 %27 to i1
  call void @llvm.lifetime.end.p0(i64 1, ptr %1) #8
  ret i1 %28
}

; Function Attrs: nounwind uwtable
define internal zeroext i1 @_init_run_test() #0 {
  %1 = alloca i8, align 1
  %2 = alloca i32, align 4
  %3 = alloca i32, align 4
  call void @llvm.lifetime.start.p0(i64 1, ptr %1) #8
  br label %4

4:                                                ; preds = %0
  call void @llvm.lifetime.start.p0(i64 4, ptr %2) #8
  %5 = call i32 @pthread_mutex_lock(ptr noundef @init_run_mutex) #8
  store i32 %5, ptr %2, align 4
  %6 = load i32, ptr %2, align 4
  %7 = icmp ne i32 %6, 0
  br i1 %7, label %8, label %11

8:                                                ; preds = %4
  %9 = load i32, ptr %2, align 4
  %10 = call ptr @__errno_location() #9
  store i32 %9, ptr %10, align 4
  call void (ptr, ...) @fatal_abort(ptr noundef @.str.1, ptr noundef @__func__._init_run_test) #10
  unreachable

11:                                               ; preds = %4
  call void @llvm.lifetime.end.p0(i64 4, ptr %2) #8
  br label %12

12:                                               ; preds = %11
  br label %13

13:                                               ; preds = %12
  %14 = load i32, ptr @plugin_inited, align 4
  %15 = icmp eq i32 %14, 2
  %16 = zext i1 %15 to i8
  store i8 %16, ptr %1, align 1
  br label %17

17:                                               ; preds = %13
  call void @llvm.lifetime.start.p0(i64 4, ptr %3) #8
  %18 = call i32 @pthread_mutex_unlock(ptr noundef @init_run_mutex) #8
  store i32 %18, ptr %3, align 4
  %19 = load i32, ptr %3, align 4
  %20 = icmp ne i32 %19, 0
  br i1 %20, label %21, label %24

21:                                               ; preds = %17
  %22 = load i32, ptr %3, align 4
  %23 = call ptr @__errno_location() #9
  store i32 %22, ptr %23, align 4
  call void (ptr, ...) @fatal_abort(ptr noundef @.str.3, ptr noundef @__func__._init_run_test) #10
  unreachable

24:                                               ; preds = %17
  call void @llvm.lifetime.end.p0(i64 4, ptr %3) #8
  br label %25

25:                                               ; preds = %24
  br label %26

26:                                               ; preds = %25
  %27 = load i8, ptr %1, align 1, !range !8, !noundef !9
  %28 = trunc i8 %27 to i1
  call void @llvm.lifetime.end.p0(i64 1, ptr %1) #8
  ret i1 %28
}

; Function Attrs: nounwind uwtable
define internal ptr @_watch_tasks(ptr noundef %0) #0 {
  %2 = alloca ptr, align 8
  %3 = alloca i32, align 4
  %4 = alloca i32, align 4
  %5 = alloca i32, align 4
  %6 = alloca i32, align 4
  %7 = alloca i32, align 4
  store ptr %0, ptr %2, align 8
  %8 = call i32 (i32, ...) @prctl(i32 noundef 15, ptr noundef @.str.45, ptr noundef null, ptr noundef null, ptr noundef null) #8
  %9 = icmp slt i32 %8, 0
  br i1 %9, label %10, label %12

10:                                               ; preds = %1
  %11 = call i32 (ptr, ...) @error(ptr noundef @.str.46, ptr noundef @__func__._watch_tasks, ptr noundef @.str.45)
  br label %12

12:                                               ; preds = %10, %1
  br label %13

13:                                               ; preds = %78, %12
  %14 = call zeroext i1 @_init_run_test()
  br i1 %14, label %15, label %19

15:                                               ; preds = %13
  %16 = call zeroext i1 @_jobacct_shutdown_test()
  br i1 %16, label %19, label %17

17:                                               ; preds = %15
  %18 = call zeroext i1 @acct_gather_profile_test()
  br label %19

19:                                               ; preds = %17, %15, %13
  %20 = phi i1 [ false, %15 ], [ false, %13 ], [ %18, %17 ]
  br i1 %20, label %21, label %79

21:                                               ; preds = %19
  br label %22

22:                                               ; preds = %21
  call void @llvm.lifetime.start.p0(i64 4, ptr %3) #8
  %23 = load ptr, ptr @profile_timer, align 8
  %24 = getelementptr inbounds nuw %struct.acct_gather_profile_timer_t, ptr %23, i32 0, i32 3
  %25 = call i32 @pthread_mutex_lock(ptr noundef %24) #8
  store i32 %25, ptr %3, align 4
  %26 = load i32, ptr %3, align 4
  %27 = icmp ne i32 %26, 0
  br i1 %27, label %28, label %31

28:                                               ; preds = %22
  %29 = load i32, ptr %3, align 4
  %30 = call ptr @__errno_location() #9
  store i32 %29, ptr %30, align 4
  call void (ptr, ...) @fatal_abort(ptr noundef @.str.1, ptr noundef @__func__._watch_tasks) #10
  unreachable

31:                                               ; preds = %22
  call void @llvm.lifetime.end.p0(i64 4, ptr %3) #8
  br label %32

32:                                               ; preds = %31
  br label %33

33:                                               ; preds = %32
  call void @llvm.lifetime.start.p0(i64 4, ptr %4) #8
  %34 = load ptr, ptr @profile_timer, align 8
  %35 = getelementptr inbounds nuw %struct.acct_gather_profile_timer_t, ptr %34, i32 0, i32 2
  %36 = load ptr, ptr @profile_timer, align 8
  %37 = getelementptr inbounds nuw %struct.acct_gather_profile_timer_t, ptr %36, i32 0, i32 3
  %38 = call i32 @pthread_cond_wait(ptr noundef %35, ptr noundef %37)
  store i32 %38, ptr %4, align 4
  %39 = load i32, ptr %4, align 4
  %40 = icmp ne i32 %39, 0
  br i1 %40, label %41, label %45

41:                                               ; preds = %33
  %42 = load i32, ptr %4, align 4
  %43 = call ptr @__errno_location() #9
  store i32 %42, ptr %43, align 4
  %44 = call i32 (ptr, ...) @error(ptr noundef @.str.47, ptr noundef @.str.8, i32 noundef 351, ptr noundef @__func__._watch_tasks)
  br label %45

45:                                               ; preds = %41, %33
  call void @llvm.lifetime.end.p0(i64 4, ptr %4) #8
  br label %46

46:                                               ; preds = %45
  br label %47

47:                                               ; preds = %46
  call void @llvm.lifetime.start.p0(i64 4, ptr %5) #8
  %48 = load ptr, ptr @profile_timer, align 8
  %49 = getelementptr inbounds nuw %struct.acct_gather_profile_timer_t, ptr %48, i32 0, i32 3
  %50 = call i32 @pthread_mutex_unlock(ptr noundef %49) #8
  store i32 %50, ptr %5, align 4
  %51 = load i32, ptr %5, align 4
  %52 = icmp ne i32 %51, 0
  br i1 %52, label %53, label %56

53:                                               ; preds = %47
  %54 = load i32, ptr %5, align 4
  %55 = call ptr @__errno_location() #9
  store i32 %54, ptr %55, align 4
  call void (ptr, ...) @fatal_abort(ptr noundef @.str.3, ptr noundef @__func__._watch_tasks) #10
  unreachable

56:                                               ; preds = %47
  call void @llvm.lifetime.end.p0(i64 4, ptr %5) #8
  br label %57

57:                                               ; preds = %56
  %58 = call zeroext i1 @_init_run_test()
  br i1 %58, label %60, label %59

59:                                               ; preds = %57
  br label %79

60:                                               ; preds = %57
  br label %61

61:                                               ; preds = %60
  call void @llvm.lifetime.start.p0(i64 4, ptr %6) #8
  %62 = call i32 @pthread_mutex_lock(ptr noundef @g_context_lock) #8
  store i32 %62, ptr %6, align 4
  %63 = load i32, ptr %6, align 4
  %64 = icmp ne i32 %63, 0
  br i1 %64, label %65, label %68

65:                                               ; preds = %61
  %66 = load i32, ptr %6, align 4
  %67 = call ptr @__errno_location() #9
  store i32 %66, ptr %67, align 4
  call void (ptr, ...) @fatal_abort(ptr noundef @.str.1, ptr noundef @__func__._watch_tasks) #10
  unreachable

68:                                               ; preds = %61
  call void @llvm.lifetime.end.p0(i64 4, ptr %6) #8
  br label %69

69:                                               ; preds = %68
  call void @_poll_data(i1 noundef zeroext true)
  br label %70

70:                                               ; preds = %69
  call void @llvm.lifetime.start.p0(i64 4, ptr %7) #8
  %71 = call i32 @pthread_mutex_unlock(ptr noundef @g_context_lock) #8
  store i32 %71, ptr %7, align 4
  %72 = load i32, ptr %7, align 4
  %73 = icmp ne i32 %72, 0
  br i1 %73, label %74, label %77

74:                                               ; preds = %70
  %75 = load i32, ptr %7, align 4
  %76 = call ptr @__errno_location() #9
  store i32 %75, ptr %76, align 4
  call void (ptr, ...) @fatal_abort(ptr noundef @.str.3, ptr noundef @__func__._watch_tasks) #10
  unreachable

77:                                               ; preds = %70
  call void @llvm.lifetime.end.p0(i64 4, ptr %7) #8
  br label %78

78:                                               ; preds = %77
  br label %13, !llvm.loop !10

79:                                               ; preds = %59, %19
  ret ptr null
}