; Function Attrs: nounwind uwtable
define internal noalias noundef ptr @_watch_tasks(ptr readnone captures(none) %0) #0 {
  %2 = tail call i32 (i32, ...) @prctl(i32 noundef 15, ptr noundef nonnull @.str.45, ptr noundef null, ptr noundef null, ptr noundef null) #10
  %3 = icmp slt i32 %2, 0
  br i1 %3, label %4, label %.preheader

4:                                                ; preds = %1
  %5 = tail call i32 (ptr, ...) @error(ptr noundef nonnull @.str.46, ptr noundef nonnull @__func__._watch_tasks, ptr noundef nonnull @.str.45) #10
  br label %.preheader

.preheader:                                       ; preds = %4, %1
  br label %6

6:                                                ; preds = %.preheader, %53
  %7 = tail call i32 @pthread_mutex_lock(ptr noundef nonnull @init_run_mutex) #10
  %.not.i = icmp eq i32 %7, 0
  br i1 %.not.i, label %10, label %8

8:                                                ; preds = %6
  %9 = tail call ptr @__errno_location() #11
  store i32 %7, ptr %9, align 4
  tail call void (ptr, ...) @fatal_abort(ptr noundef nonnull @.str.1, ptr noundef nonnull @__func__._init_run_test) #12
  unreachable

10:                                               ; preds = %6
  %11 = load i32, ptr @plugin_inited, align 4
  %12 = tail call i32 @pthread_mutex_unlock(ptr noundef nonnull @init_run_mutex) #10
  %.not6.i = icmp eq i32 %12, 0
  br i1 %.not6.i, label %_init_run_test.exit, label %13

13:                                               ; preds = %10
  %14 = tail call ptr @__errno_location() #11
  store i32 %12, ptr %14, align 4
  tail call void (ptr, ...) @fatal_abort(ptr noundef nonnull @.str.3, ptr noundef nonnull @__func__._init_run_test) #12
  unreachable

_init_run_test.exit:                              ; preds = %10
  %15 = icmp eq i32 %11, 2
  br i1 %15, label %16, label %.critedge

16:                                               ; preds = %_init_run_test.exit
  %17 = tail call i32 @pthread_mutex_lock(ptr noundef nonnull @jobacct_shutdown_mutex) #10
  %.not.i18 = icmp eq i32 %17, 0
  br i1 %.not.i18, label %20, label %18

18:                                               ; preds = %16
  %19 = tail call ptr @__errno_location() #11
  store i32 %17, ptr %19, align 4
  tail call void (ptr, ...) @fatal_abort(ptr noundef nonnull @.str.1, ptr noundef nonnull @__func__._jobacct_shutdown_test) #12
  unreachable

20:                                               ; preds = %16
  %.b.i = load i1, ptr @jobacct_shutdown, align 1
  %21 = tail call i32 @pthread_mutex_unlock(ptr noundef nonnull @jobacct_shutdown_mutex) #10
  %.not6.i19 = icmp eq i32 %21, 0
  br i1 %.not6.i19, label %_jobacct_shutdown_test.exit, label %22

22:                                               ; preds = %20
  %23 = tail call ptr @__errno_location() #11
  store i32 %21, ptr %23, align 4
  tail call void (ptr, ...) @fatal_abort(ptr noundef nonnull @.str.3, ptr noundef nonnull @__func__._jobacct_shutdown_test) #12
  unreachable

_jobacct_shutdown_test.exit:                      ; preds = %20
  br i1 %.b.i, label %24, label %.critedge

24:                                               ; preds = %_jobacct_shutdown_test.exit
  %25 = tail call zeroext i1 @acct_gather_profile_test() #10
  br i1 %25, label %26, label %.critedge

26:                                               ; preds = %24
  %27 = tail call i32 @pthread_mutex_lock(ptr noundef nonnull getelementptr inbounds nuw (i8, ptr @acct_gather_profile_timer, i64 168)) #10
  %.not = icmp eq i32 %27, 0
  br i1 %.not, label %30, label %28

28:                                               ; preds = %26
  %29 = tail call ptr @__errno_location() #11
  store i32 %27, ptr %29, align 4
  tail call void (ptr, ...) @fatal_abort(ptr noundef nonnull @.str.1, ptr noundef nonnull @__func__._watch_tasks) #12
  unreachable

30:                                               ; preds = %26
  %31 = tail call i32 @pthread_cond_wait(ptr noundef nonnull getelementptr inbounds nuw (i8, ptr @acct_gather_profile_timer, i64 120), ptr noundef nonnull getelementptr inbounds nuw (i8, ptr @acct_gather_profile_timer, i64 168)) #10
  %.not14 = icmp eq i32 %31, 0
  br i1 %.not14, label %35, label %32

32:                                               ; preds = %30
  %33 = tail call ptr @__errno_location() #11
  store i32 %31, ptr %33, align 4
  %34 = tail call i32 (ptr, ...) @error(ptr noundef nonnull @.str.47, ptr noundef nonnull @.str.8, i32 noundef 351, ptr noundef nonnull @__func__._watch_tasks) #10
  br label %35

35:                                               ; preds = %32, %30
  %36 = tail call i32 @pthread_mutex_unlock(ptr noundef nonnull getelementptr inbounds nuw (i8, ptr @acct_gather_profile_timer, i64 168)) #10
  %.not15 = icmp eq i32 %36, 0
  br i1 %.not15, label %39, label %37

37:                                               ; preds = %35
  %38 = tail call ptr @__errno_location() #11
  store i32 %36, ptr %38, align 4
  tail call void (ptr, ...) @fatal_abort(ptr noundef nonnull @.str.3, ptr noundef nonnull @__func__._watch_tasks) #12
  unreachable

39:                                               ; preds = %35
  %40 = tail call i32 @pthread_mutex_lock(ptr noundef nonnull @init_run_mutex) #10
  %.not.i20 = icmp eq i32 %40, 0
  br i1 %.not.i20, label %43, label %41

41:                                               ; preds = %39
  %42 = tail call ptr @__errno_location() #11
  store i32 %40, ptr %42, align 4
  tail call void (ptr, ...) @fatal_abort(ptr noundef nonnull @.str.1, ptr noundef nonnull @__func__._init_run_test) #12
  unreachable

43:                                               ; preds = %39
  %44 = load i32, ptr @plugin_inited, align 4
  %45 = tail call i32 @pthread_mutex_unlock(ptr noundef nonnull @init_run_mutex) #10
  %.not6.i21 = icmp eq i32 %45, 0
  br i1 %.not6.i21, label %_init_run_test.exit22, label %46

46:                                               ; preds = %43
  %47 = tail call ptr @__errno_location() #11
  store i32 %45, ptr %47, align 4
  tail call void (ptr, ...) @fatal_abort(ptr noundef nonnull @.str.3, ptr noundef nonnull @__func__._init_run_test) #12
  unreachable

_init_run_test.exit22:                            ; preds = %43
  %48 = icmp eq i32 %44, 2
  br i1 %48, label %49, label %.critedge

49:                                               ; preds = %_init_run_test.exit22
  %50 = tail call i32 @pthread_mutex_lock(ptr noundef nonnull @g_context_lock) #10
  %.not16 = icmp eq i32 %50, 0
  br i1 %.not16, label %53, label %51

51:                                               ; preds = %49
  %52 = tail call ptr @__errno_location() #11
  store i32 %50, ptr %52, align 4
  tail call void (ptr, ...) @fatal_abort(ptr noundef nonnull @.str.1, ptr noundef nonnull @__func__._watch_tasks) #12
  unreachable

53:                                               ; preds = %49
  tail call fastcc void @_poll_data(i1 noundef zeroext true)
  %54 = tail call i32 @pthread_mutex_unlock(ptr noundef nonnull @g_context_lock) #10
  %.not17 = icmp eq i32 %54, 0
  br i1 %.not17, label %6, label %55, !llvm.loop !8

55:                                               ; preds = %53
  %56 = tail call ptr @__errno_location() #11
  store i32 %54, ptr %56, align 4
  tail call void (ptr, ...) @fatal_abort(ptr noundef nonnull @.str.3, ptr noundef nonnull @__func__._watch_tasks) #12
  unreachable

.critedge:                                        ; preds = %_jobacct_shutdown_test.exit, %_init_run_test.exit, %_init_run_test.exit22, %24
  ret ptr null
}